target datalayout = "e-m:e-p270:32:32-p271:32:32-p272:64:64-i64:64-i128:128-f80:128-n8:16:32:64-S128"
target triple = "x86_64-pc-linux-gnu"

%"struct.LIEF::MachO::details::linkedit_data_command" = type { i32, i32, i32, i32 }
%"class.LIEF::MachO::CodeSignatureDir" = type { %"class.LIEF::MachO::LoadCommand", i32, i32, %"class.tcb::span" }
%"class.LIEF::MachO::LoadCommand" = type { %"class.LIEF::Object", %"class.std::vector", i64, i32, i64 }
%"class.LIEF::Object" = type { ptr }
%"class.std::vector" = type { %"struct.std::_Vector_base" }
%"struct.std::_Vector_base" = type { %"struct.std::_Vector_base<unsigned char, std::allocator<unsigned char>>::_Vector_impl" }
%"struct.std::_Vector_base<unsigned char, std::allocator<unsigned char>>::_Vector_impl" = type { %"struct.std::_Vector_base<unsigned char, std::allocator<unsigned char>>::_Vector_impl_data" }
%"struct.std::_Vector_base<unsigned char, std::allocator<unsigned char>>::_Vector_impl_data" = type { ptr, ptr, ptr }
%"class.tcb::span" = type { %"struct.tcb::detail::span_storage" }
%"struct.tcb::detail::span_storage" = type { ptr, i64 }

@_ZTVN4LIEF5MachO11LoadCommandE = external unnamed_addr constant { [9 x ptr] }, align 8

; Function Attrs: mustprogress nounwind uwtable
define linkonce_odr hidden void @_ZNSt15__new_allocatorIhEC2Ev(ptr noundef nonnull align 1 dereferenceable(1) %0) unnamed_addr #0 comdat align 2 {
  %2 = alloca ptr, align 8
  store ptr %0, ptr %2, align 8, !tbaa !69
  ret void
}

; Function Attrs: mustprogress nounwind uwtable
define linkonce_odr hidden void @_ZNSt12_Vector_baseIhSaIhEE17_Vector_impl_dataC2Ev(ptr noundef nonnull align 8 dereferenceable(24) %0) unnamed_addr #0 comdat align 2 {
  %2 = alloca ptr, align 8
  store ptr %0, ptr %2, align 8, !tbaa !64
  %3 = load ptr, ptr %2, align 8
  %4 = getelementptr inbounds nuw %"struct.std::_Vector_base<unsigned char, std::allocator<unsigned char>>::_Vector_impl_data", ptr %3, i32 0, i32 0
  store ptr null, ptr %4, align 8, !tbaa !66
  %5 = getelementptr inbounds nuw %"struct.std::_Vector_base<unsigned char, std::allocator<unsigned char>>::_Vector_impl_data", ptr %3, i32 0, i32 1
  store ptr null, ptr %5, align 8, !tbaa !67
  %6 = getelementptr inbounds nuw %"struct.std::_Vector_base<unsigned char, std::allocator<unsigned char>>::_Vector_impl_data", ptr %3, i32 0, i32 2
  store ptr null, ptr %6, align 8, !tbaa !68
  ret void
}

; Function Attrs: mustprogress nounwind uwtable
define linkonce_odr hidden void @_ZNSaIhEC2Ev(ptr noundef nonnull align 1 dereferenceable(1) %0) unnamed_addr #0 comdat align 2 {
  %2 = alloca ptr, align 8
  store ptr %0, ptr %2, align 8, !tbaa !62
  %3 = load ptr, ptr %2, align 8
  call void @_ZNSt15__new_allocatorIhEC2Ev(ptr noundef nonnull align 1 dereferenceable(1) %3) #19
  ret void
}

; Function Attrs: mustprogress nounwind uwtable
define linkonce_odr hidden void @_ZNSt12_Vector_baseIhSaIhEE12_Vector_implC2Ev(ptr noundef nonnull align 8 dereferenceable(24) %0) unnamed_addr #0 comdat align 2 {
  %2 = alloca ptr, align 8
  store ptr %0, ptr %2, align 8, !tbaa !60
  %3 = load ptr, ptr %2, align 8
  call void @_ZNSaIhEC2Ev(ptr noundef nonnull align 1 dereferenceable(1) %3) #19
  call void @_ZNSt12_Vector_baseIhSaIhEE17_Vector_impl_dataC2Ev(ptr noundef nonnull align 8 dereferenceable(24) %3) #19
  ret void
}

; Function Attrs: mustprogress nounwind uwtable
define linkonce_odr hidden void @_ZNSt12_Vector_baseIhSaIhEEC2Ev(ptr noundef nonnull align 8 dereferenceable(24) %0) unnamed_addr #0 comdat align 2 {
  %2 = alloca ptr, align 8
  store ptr %0, ptr %2, align 8, !tbaa !58
  %3 = load ptr, ptr %2, align 8
  %4 = getelementptr inbounds nuw %"struct.std::_Vector_base", ptr %3, i32 0, i32 0
  call void @_ZNSt12_Vector_baseIhSaIhEE12_Vector_implC2Ev(ptr noundef nonnull align 8 dereferenceable(24) %4) #19
  ret void
}

; Function Attrs: mustprogress nounwind uwtable
define linkonce_odr hidden void @_ZN3tcb6detail12span_storageIhLm18446744073709551615EEC2Ev(ptr noundef nonnull align 8 dereferenceable(16) %0) unnamed_addr #0 comdat align 2 {
  %2 = alloca ptr, align 8
  store ptr %0, ptr %2, align 8, !tbaa !71
  %3 = load ptr, ptr %2, align 8
  %4 = getelementptr inbounds nuw %"struct.tcb::detail::span_storage", ptr %3, i32 0, i32 0
  store ptr null, ptr %4, align 8, !tbaa !73
  %5 = getelementptr inbounds nuw %"struct.tcb::detail::span_storage", ptr %3, i32 0, i32 1
  store i64 0, ptr %5, align 8, !tbaa !74
  ret void
}

; Function Attrs: mustprogress nounwind uwtable
define linkonce_odr hidden void @_ZNSt6vectorIhSaIhEEC2Ev(ptr noundef nonnull align 8 dereferenceable(24) %0) unnamed_addr #0 comdat align 2 {
  %2 = alloca ptr, align 8
  store ptr %0, ptr %2, align 8, !tbaa !56
  %3 = load ptr, ptr %2, align 8
  call void @_ZNSt12_Vector_baseIhSaIhEEC2Ev(ptr noundef nonnull align 8 dereferenceable(24) %3) #19
  ret void
}

; Function Attrs: mustprogress nounwind uwtable
define linkonce_odr hidden void @_ZN3tcb4spanIhLm18446744073709551615EEC2ILm18446744073709551615ETnNSt9enable_ifIXooeqT_L_ZNS_14dynamic_extentEEleT_Li0EEiE4typeELi0EEEv(ptr noundef nonnull align 8 dereferenceable(16) %0) unnamed_addr #0 comdat align 2 {
  %2 = alloca ptr, align 8
  store ptr %0, ptr %2, align 8, !tbaa !39
  %3 = load ptr, ptr %2, align 8
  %4 = getelementptr inbounds nuw %"class.tcb::span", ptr %3, i32 0, i32 0
  call void @llvm.memset.p0.i64(ptr align 8 %4, i8 0, i64 16, i1 false)
  call void @_ZN3tcb6detail12span_storageIhLm18446744073709551615EEC2Ev(ptr noundef nonnull align 8 dereferenceable(16) %4) #19
  ret void
}

; Function Attrs: mustprogress nounwind uwtable
define linkonce_odr hidden void @_ZN4LIEF5MachO11LoadCommandC2ENS1_4TYPEEj(ptr noundef nonnull align 8 dereferenceable(56) %0, i64 noundef %1, i32 noundef %2) unnamed_addr #0 comdat align 2 {
  %4 = alloca ptr, align 8
  %5 = alloca i64, align 8
  %6 = alloca i32, align 4
  store ptr %0, ptr %4, align 8, !tbaa !32
  store i64 %1, ptr %5, align 8, !tbaa !34
  store i32 %2, ptr %6, align 4, !tbaa !35
  %7 = load ptr, ptr %4, align 8
  call void @_ZN4LIEF6ObjectC2Ev(ptr noundef nonnull align 8 dereferenceable(8) %7)
  store ptr getelementptr inbounds inrange(-16, 56) ({ [9 x ptr] }, ptr @_ZTVN4LIEF5MachO11LoadCommandE, i32 0, i32 0, i32 2), ptr %7, align 8, !tbaa !14
  %8 = getelementptr inbounds nuw %"class.LIEF::MachO::LoadCommand", ptr %7, i32 0, i32 1
  call void @_ZNSt6vectorIhSaIhEEC2Ev(ptr noundef nonnull align 8 dereferenceable(24) %8) #19
  %9 = getelementptr inbounds nuw %"class.LIEF::MachO::LoadCommand", ptr %7, i32 0, i32 2
  %10 = load i64, ptr %5, align 8, !tbaa !34
  store i64 %10, ptr %9, align 8, !tbaa !36
  %11 = getelementptr inbounds nuw %"class.LIEF::MachO::LoadCommand", ptr %7, i32 0, i32 3
  %12 = load i32, ptr %6, align 4, !tbaa !35
  store i32 %12, ptr %11, align 8, !tbaa !37
  %13 = getelementptr inbounds nuw %"class.LIEF::MachO::LoadCommand", ptr %7, i32 0, i32 4
  store i64 0, ptr %13, align 8, !tbaa !38
  ret void
}

; Function Attrs: mustprogress nounwind uwtable
define void @_ZN4LIEF5MachO16CodeSignatureDirC2ERKNS0_7details21linkedit_data_commandE(ptr noundef nonnull align 8 dereferenceable(80) %0, ptr noundef nonnull align 4 dereferenceable(16) %1) unnamed_addr #0 align 2 {
  %3 = alloca ptr, align 8
  %4 = alloca ptr, align 8
  store ptr %0, ptr %3, align 8, !tbaa !3
  store ptr %1, ptr %4, align 8, !tbaa !8
  %5 = load ptr, ptr %3, align 8
  %6 = load ptr, ptr %4, align 8, !tbaa !8
  %7 = getelementptr inbounds nuw %"struct.LIEF::MachO::details::linkedit_data_command", ptr %6, i32 0, i32 0
  %8 = load i32, ptr %7, align 4, !tbaa !10
  %9 = zext i32 %8 to i64
  %10 = load ptr, ptr %4, align 8, !tbaa !8
  %11 = getelementptr inbounds nuw %"struct.LIEF::MachO::details::linkedit_data_command", ptr %10, i32 0, i32 1
  %12 = load i32, ptr %11, align 4, !tbaa !13
  call void @_ZN4LIEF5MachO11LoadCommandC2ENS1_4TYPEEj(ptr noundef nonnull align 8 dereferenceable(56) %5, i64 noundef %9, i32 noundef %12)
  store ptr getelementptr inbounds inrange(-16, 56) ({ [9 x ptr] }, ptr @_ZTVN4LIEF5MachO16CodeSignatureDirE, i32 0, i32 0, i32 2), ptr %5, align 8, !tbaa !14
  %13 = getelementptr inbounds nuw %"class.LIEF::MachO::CodeSignatureDir", ptr %5, i32 0, i32 1
  %14 = load ptr, ptr %4, align 8, !tbaa !8
  %15 = getelementptr inbounds nuw %"struct.LIEF::MachO::details::linkedit_data_command", ptr %14, i32 0, i32 2
  %16 = load i32, ptr %15, align 4, !tbaa !16
  store i32 %16, ptr %13, align 8, !tbaa !17
  %17 = getelementptr inbounds nuw %"class.LIEF::MachO::CodeSignatureDir", ptr %5, i32 0, i32 2
  %18 = load ptr, ptr %4, align 8, !tbaa !8
  %19 = getelementptr inbounds nuw %"struct.LIEF::MachO::details::linkedit_data_command", ptr %18, i32 0, i32 3
  %20 = load i32, ptr %19, align 4, !tbaa !30
  store i32 %20, ptr %17, align 4, !tbaa !31
  %21 = getelementptr inbounds nuw %"class.LIEF::MachO::CodeSignatureDir", ptr %5, i32 0, i32 3
  call void @_ZN3tcb4spanIhLm18446744073709551615EEC2ILm18446744073709551615ETnNSt9enable_ifIXooeqT_L_ZNS_14dynamic_extentEEleT_Li0EEiE4typeELi0EEEv(ptr noundef nonnull align 8 dereferenceable(16) %21) #19
  ret void
}